target datalayout = "e-m:e-p270:32:32-p271:32:32-p272:64:64-i64:64-i128:128-f80:128-n8:16:32:64-S128"
target triple = "x86_64-pc-linux-gnu"

%struct.AVChannelLayout = type { i32, i32, %union.anon.1, ptr }
%union.anon.1 = type { i64 }
%struct.ReplayGainFreqInfo = type { i32, [11 x double], [11 x double], [3 x double], [3 x double] }

@query_formats.formats = internal constant [2 x i32] [i32 3, i32 -1], align 4
@query_formats.layouts = internal constant [2 x %struct.AVChannelLayout] [%struct.AVChannelLayout { i32 1, i32 2, %union.anon.1 { i64 3 }, ptr null }, %struct.AVChannelLayout zeroinitializer], align 16

; Function Attrs: nounwind uwtable
define internal i32 @query_formats(ptr noundef %0, ptr noundef %1, ptr noundef %2) #0 {
  %4 = alloca i32, align 4
  %5 = alloca ptr, align 8
  %6 = alloca ptr, align 8
  %7 = alloca ptr, align 8
  %8 = alloca ptr, align 8
  %9 = alloca i32, align 4
  %10 = alloca i32, align 4
  %11 = alloca i32, align 4
  store ptr %0, ptr %5, align 8, !tbaa !4
  store ptr %1, ptr %6, align 8, !tbaa !9
  store ptr %2, ptr %7, align 8, !tbaa !9
  call void @llvm.lifetime.start.p0(i64 8, ptr %8) #9
  call void @llvm.lifetime.start.p0(i64 4, ptr %9) #9
  call void @llvm.lifetime.start.p0(i64 4, ptr %10) #9
  %12 = load ptr, ptr %5, align 8, !tbaa !4
  %13 = load ptr, ptr %6, align 8, !tbaa !9
  %14 = load ptr, ptr %7, align 8, !tbaa !9
  %15 = call i32 @ff_set_common_formats_from_list2(ptr noundef %12, ptr noundef %13, ptr noundef %14, ptr noundef @query_formats.formats)
  store i32 %15, ptr %10, align 4, !tbaa !12
  %16 = load i32, ptr %10, align 4, !tbaa !12
  %17 = icmp slt i32 %16, 0
  br i1 %17, label %18, label %20

18:                                               ; preds = %3
  %19 = load i32, ptr %10, align 4, !tbaa !12
  store i32 %19, ptr %4, align 4
  store i32 1, ptr %11, align 4
  br label %55

20:                                               ; preds = %3
  %21 = load ptr, ptr %5, align 8, !tbaa !4
  %22 = load ptr, ptr %6, align 8, !tbaa !9
  %23 = load ptr, ptr %7, align 8, !tbaa !9
  %24 = call i32 @ff_set_common_channel_layouts_from_list2(ptr noundef %21, ptr noundef %22, ptr noundef %23, ptr noundef @query_formats.layouts)
  store i32 %24, ptr %10, align 4, !tbaa !12
  %25 = load i32, ptr %10, align 4, !tbaa !12
  %26 = icmp slt i32 %25, 0
  br i1 %26, label %27, label %29

27:                                               ; preds = %20
  %28 = load i32, ptr %10, align 4, !tbaa !12
  store i32 %28, ptr %4, align 4
  store i32 1, ptr %11, align 4
  br label %55

29:                                               ; preds = %20
  store ptr null, ptr %8, align 8, !tbaa !14
  store i32 0, ptr %9, align 4, !tbaa !12
  br label %30

30:                                               ; preds = %46, %29
  %31 = load i32, ptr %9, align 4, !tbaa !12
  %32 = sext i32 %31 to i64
  %33 = icmp ult i64 %32, 20
  br i1 %33, label %34, label %49

34:                                               ; preds = %30
  %35 = load i32, ptr %9, align 4, !tbaa !12
  %36 = sext i32 %35 to i64
  %37 = getelementptr inbounds [20 x %struct.ReplayGainFreqInfo], ptr @freqinfos, i64 0, i64 %36
  %38 = getelementptr inbounds nuw %struct.ReplayGainFreqInfo, ptr %37, i32 0, i32 0
  %39 = load i32, ptr %38, align 8, !tbaa !16
  %40 = sext i32 %39 to i64
  %41 = call i32 @ff_add_format(ptr noundef %8, i64 noundef %40)
  store i32 %41, ptr %10, align 4, !tbaa !12
  %42 = icmp slt i32 %41, 0
  br i1 %42, label %43, label %45

43:                                               ; preds = %34
  %44 = load i32, ptr %10, align 4, !tbaa !12
  store i32 %44, ptr %4, align 4
  store i32 1, ptr %11, align 4
  br label %55

45:                                               ; preds = %34
  br label %46

46:                                               ; preds = %45
  %47 = load i32, ptr %9, align 4, !tbaa !12
  %48 = add nsw i32 %47, 1
  store i32 %48, ptr %9, align 4, !tbaa !12
  br label %30, !llvm.loop !18

49:                                               ; preds = %30
  %50 = load ptr, ptr %5, align 8, !tbaa !4
  %51 = load ptr, ptr %6, align 8, !tbaa !9
  %52 = load ptr, ptr %7, align 8, !tbaa !9
  %53 = load ptr, ptr %8, align 8, !tbaa !14
  %54 = call i32 @ff_set_common_samplerates2(ptr noundef %50, ptr noundef %51, ptr noundef %52, ptr noundef %53)
  store i32 %54, ptr %4, align 4
  store i32 1, ptr %11, align 4
  br label %55

55:                                               ; preds = %49, %43, %27, %18
  call void @llvm.lifetime.end.p0(i64 4, ptr %10) #9
  call void @llvm.lifetime.end.p0(i64 4, ptr %9) #9
  call void @llvm.lifetime.end.p0(i64 8, ptr %8) #9
  %56 = load i32, ptr %4, align 4
  ret i32 %56
}