; Function Attrs: nounwind uwtable
define internal i32 @query_formats(ptr noundef %0, ptr noundef %1, ptr noundef %2) #0 {
  %4 = alloca ptr, align 8
  call void @llvm.lifetime.start.p0(i64 8, ptr nonnull %4) #8
  %5 = tail call i32 @ff_set_common_formats_from_list2(ptr noundef %0, ptr noundef %1, ptr noundef %2, ptr noundef nonnull @query_formats.formats) #8
  %6 = icmp slt i32 %5, 0
  br i1 %6, label %.loopexit, label %7

7:                                                ; preds = %3
  %8 = tail call i32 @ff_set_common_channel_layouts_from_list2(ptr noundef %0, ptr noundef %1, ptr noundef %2, ptr noundef nonnull @query_formats.layouts) #8
  %9 = icmp slt i32 %8, 0
  br i1 %9, label %.loopexit, label %10

10:                                               ; preds = %7
  store ptr null, ptr %4, align 8, !tbaa !4
  br label %12

11:                                               ; preds = %12
  %indvars.iv.next = add nuw nsw i64 %indvars.iv, 1
  %exitcond.not = icmp eq i64 %indvars.iv.next, 20
  br i1 %exitcond.not, label %18, label %12, !llvm.loop !9

12:                                               ; preds = %10, %11
  %indvars.iv = phi i64 [ 0, %10 ], [ %indvars.iv.next, %11 ]
  %13 = getelementptr inbounds nuw [20 x %struct.ReplayGainFreqInfo], ptr @freqinfos, i64 0, i64 %indvars.iv
  %14 = load i32, ptr %13, align 8, !tbaa !11
  %15 = sext i32 %14 to i64
  %16 = call i32 @ff_add_format(ptr noundef nonnull %4, i64 noundef %15) #8
  %17 = icmp slt i32 %16, 0
  br i1 %17, label %.loopexit, label %11

18:                                               ; preds = %11
  %19 = load ptr, ptr %4, align 8, !tbaa !4
  %20 = call i32 @ff_set_common_samplerates2(ptr noundef %0, ptr noundef %1, ptr noundef %2, ptr noundef %19) #8
  br label %.loopexit

.loopexit:                                        ; preds = %12, %7, %3, %18
  %.017 = phi i32 [ %20, %18 ], [ %5, %3 ], [ %8, %7 ], [ %16, %12 ]
  call void @llvm.lifetime.end.p0(i64 8, ptr nonnull %4) #8
  ret i32 %.017
}